; Function Attrs: nounwind uwtable
define noalias nonnull ptr @l_Int_isPosValue___lambda__1___boxed(ptr noundef %0, ptr noundef %1, ptr noundef %2, ptr noundef %3, ptr noundef %4, ptr noundef %5, ptr noundef %6, ptr noundef %7, ptr noundef %8, ptr noundef %9) local_unnamed_addr #1 {
  tail call void @lean_inc_heartbeat() #5
  %11 = tail call noalias ptr @mi_malloc_small(i64 noundef 16) #5
  %12 = icmp eq ptr %11, null
  br i1 %12, label %13, label %lean_alloc_ctor.exit.i

13:                                               ; preds = %10
  tail call void @lean_internal_panic_out_of_memory() #6
  unreachable

lean_alloc_ctor.exit.i:                           ; preds = %10
  %14 = getelementptr inbounds nuw i8, ptr %11, i64 4
  store i32 1, ptr %11, align 4, !tbaa !6
  store i32 65552, ptr %14, align 4
  %15 = getelementptr inbounds nuw i8, ptr %11, i64 8
  store ptr %0, ptr %15, align 8, !tbaa !11
  tail call void @lean_inc_heartbeat() #5
  %16 = tail call noalias ptr @mi_malloc_small(i64 noundef 24) #5
  %17 = icmp eq ptr %16, null
  br i1 %17, label %18, label %l_Int_isPosValue___lambda__1.exit

18:                                               ; preds = %lean_alloc_ctor.exit.i
  tail call void @lean_internal_panic_out_of_memory() #6
  unreachable

l_Int_isPosValue___lambda__1.exit:                ; preds = %lean_alloc_ctor.exit.i
  %19 = getelementptr inbounds nuw i8, ptr %16, i64 4
  store i32 1, ptr %16, align 4, !tbaa !6
  store i32 131096, ptr %19, align 4
  %20 = getelementptr inbounds nuw i8, ptr %16, i64 8
  store ptr %11, ptr %20, align 8, !tbaa !11
  %21 = getelementptr inbounds nuw i8, ptr %16, i64 16
  store ptr %9, ptr %21, align 8, !tbaa !11
  %22 = ptrtoint ptr %8 to i64
  %23 = and i64 %22, 1
  %.not = icmp eq i64 %23, 0
  br i1 %.not, label %24, label %lean_dec.exit25

24:                                               ; preds = %l_Int_isPosValue___lambda__1.exit
  %25 = load i32, ptr %8, align 4, !tbaa !6
  %26 = icmp sgt i32 %25, 1
  br i1 %26, label %27, label %29, !prof !5

27:                                               ; preds = %24
  %28 = add nsw i32 %25, -1
  store i32 %28, ptr %8, align 4, !tbaa !6
  br label %lean_dec.exit25

29:                                               ; preds = %24
  %.not.i = icmp eq i32 %25, 0
  br i1 %.not.i, label %lean_dec.exit25, label %30

30:                                               ; preds = %29
  tail call void @lean_dec_ref_cold(ptr noundef nonnull %8) #5
  br label %lean_dec.exit25

lean_dec.exit25:                                  ; preds = %30, %29, %27, %l_Int_isPosValue___lambda__1.exit
  %31 = ptrtoint ptr %7 to i64
  %32 = and i64 %31, 1
  %.not40 = icmp eq i64 %32, 0
  br i1 %.not40, label %33, label %lean_dec.exit24

33:                                               ; preds = %lean_dec.exit25
  %34 = load i32, ptr %7, align 4, !tbaa !6
  %35 = icmp sgt i32 %34, 1
  br i1 %35, label %36, label %38, !prof !5

36:                                               ; preds = %33
  %37 = add nsw i32 %34, -1
  store i32 %37, ptr %7, align 4, !tbaa !6
  br label %lean_dec.exit24

38:                                               ; preds = %33
  %.not.i26 = icmp eq i32 %34, 0
  br i1 %.not.i26, label %lean_dec.exit24, label %39

39:                                               ; preds = %38
  tail call void @lean_dec_ref_cold(ptr noundef nonnull %7) #5
  br label %lean_dec.exit24

lean_dec.exit24:                                  ; preds = %39, %38, %36, %lean_dec.exit25
  %40 = ptrtoint ptr %6 to i64
  %41 = and i64 %40, 1
  %.not41 = icmp eq i64 %41, 0
  br i1 %.not41, label %42, label %lean_dec.exit23

42:                                               ; preds = %lean_dec.exit24
  %43 = load i32, ptr %6, align 4, !tbaa !6
  %44 = icmp sgt i32 %43, 1
  br i1 %44, label %45, label %47, !prof !5

45:                                               ; preds = %42
  %46 = add nsw i32 %43, -1
  store i32 %46, ptr %6, align 4, !tbaa !6
  br label %lean_dec.exit23

47:                                               ; preds = %42
  %.not.i28 = icmp eq i32 %43, 0
  br i1 %.not.i28, label %lean_dec.exit23, label %48

48:                                               ; preds = %47
  tail call void @lean_dec_ref_cold(ptr noundef nonnull %6) #5
  br label %lean_dec.exit23

lean_dec.exit23:                                  ; preds = %48, %47, %45, %lean_dec.exit24
  %49 = ptrtoint ptr %5 to i64
  %50 = and i64 %49, 1
  %.not42 = icmp eq i64 %50, 0
  br i1 %.not42, label %51, label %lean_dec.exit22

51:                                               ; preds = %lean_dec.exit23
  %52 = load i32, ptr %5, align 4, !tbaa !6
  %53 = icmp sgt i32 %52, 1
  br i1 %53, label %54, label %56, !prof !5

54:                                               ; preds = %51
  %55 = add nsw i32 %52, -1
  store i32 %55, ptr %5, align 4, !tbaa !6
  br label %lean_dec.exit22

56:                                               ; preds = %51
  %.not.i30 = icmp eq i32 %52, 0
  br i1 %.not.i30, label %lean_dec.exit22, label %57

57:                                               ; preds = %56
  tail call void @lean_dec_ref_cold(ptr noundef nonnull %5) #5
  br label %lean_dec.exit22

lean_dec.exit22:                                  ; preds = %57, %56, %54, %lean_dec.exit23
  %58 = ptrtoint ptr %4 to i64
  %59 = and i64 %58, 1
  %.not43 = icmp eq i64 %59, 0
  br i1 %.not43, label %60, label %lean_dec.exit21

60:                                               ; preds = %lean_dec.exit22
  %61 = load i32, ptr %4, align 4, !tbaa !6
  %62 = icmp sgt i32 %61, 1
  br i1 %62, label %63, label %65, !prof !5

63:                                               ; preds = %60
  %64 = add nsw i32 %61, -1
  store i32 %64, ptr %4, align 4, !tbaa !6
  br label %lean_dec.exit21

65:                                               ; preds = %60
  %.not.i32 = icmp eq i32 %61, 0
  br i1 %.not.i32, label %lean_dec.exit21, label %66

66:                                               ; preds = %65
  tail call void @lean_dec_ref_cold(ptr noundef nonnull %4) #5
  br label %lean_dec.exit21

lean_dec.exit21:                                  ; preds = %66, %65, %63, %lean_dec.exit22
  %67 = ptrtoint ptr %3 to i64
  %68 = and i64 %67, 1
  %.not44 = icmp eq i64 %68, 0
  br i1 %.not44, label %69, label %lean_dec.exit20

69:                                               ; preds = %lean_dec.exit21
  %70 = load i32, ptr %3, align 4, !tbaa !6
  %71 = icmp sgt i32 %70, 1
  br i1 %71, label %72, label %74, !prof !5

72:                                               ; preds = %69
  %73 = add nsw i32 %70, -1
  store i32 %73, ptr %3, align 4, !tbaa !6
  br label %lean_dec.exit20

74:                                               ; preds = %69
  %.not.i34 = icmp eq i32 %70, 0
  br i1 %.not.i34, label %lean_dec.exit20, label %75

75:                                               ; preds = %74
  tail call void @lean_dec_ref_cold(ptr noundef nonnull %3) #5
  br label %lean_dec.exit20

lean_dec.exit20:                                  ; preds = %75, %74, %72, %lean_dec.exit21
  %76 = ptrtoint ptr %2 to i64
  %77 = and i64 %76, 1
  %.not45 = icmp eq i64 %77, 0
  br i1 %.not45, label %78, label %lean_dec.exit19

78:                                               ; preds = %lean_dec.exit20
  %79 = load i32, ptr %2, align 4, !tbaa !6
  %80 = icmp sgt i32 %79, 1
  br i1 %80, label %81, label %83, !prof !5

81:                                               ; preds = %78
  %82 = add nsw i32 %79, -1
  store i32 %82, ptr %2, align 4, !tbaa !6
  br label %lean_dec.exit19

83:                                               ; preds = %78
  %.not.i36 = icmp eq i32 %79, 0
  br i1 %.not.i36, label %lean_dec.exit19, label %84

84:                                               ; preds = %83
  tail call void @lean_dec_ref_cold(ptr noundef nonnull %2) #5
  br label %lean_dec.exit19

lean_dec.exit19:                                  ; preds = %84, %83, %81, %lean_dec.exit20
  %85 = ptrtoint ptr %1 to i64
  %86 = and i64 %85, 1
  %.not46 = icmp eq i64 %86, 0
  br i1 %.not46, label %87, label %lean_dec.exit

87:                                               ; preds = %lean_dec.exit19
  %88 = load i32, ptr %1, align 4, !tbaa !6
  %89 = icmp sgt i32 %88, 1
  br i1 %89, label %90, label %92, !prof !5

90:                                               ; preds = %87
  %91 = add nsw i32 %88, -1
  store i32 %91, ptr %1, align 4, !tbaa !6
  br label %lean_dec.exit

92:                                               ; preds = %87
  %.not.i38 = icmp eq i32 %88, 0
  br i1 %.not.i38, label %lean_dec.exit, label %93

93:                                               ; preds = %92
  tail call void @lean_dec_ref_cold(ptr noundef nonnull %1) #5
  br label %lean_dec.exit

lean_dec.exit:                                    ; preds = %93, %92, %90, %lean_dec.exit19
  ret ptr %16
}